target datalayout = "e-m:e-p270:32:32-p271:32:32-p272:64:64-i64:64-i128:128-f80:128-n8:16:32:64-S128"
target triple = "x86_64-pc-linux-gnu"

%class.obj_ref = type { ptr, ptr }
%class.obj_ref.1 = type { ptr, ptr }
%class.dependent_expr_simplifier = type { ptr, ptr, ptr, ptr }
%class.obj_ref.49 = type { ptr, ptr }

; Function Attrs: mustprogress nounwind uwtable
define linkonce_odr hidden noundef ptr @_ZNK7obj_refIN18dependency_managerIN11ast_manager22expr_dependency_configEE10dependencyES1_EcvPS4_Ev(ptr noundef nonnull align 8 dereferenceable(16) %0) #6 comdat align 2 {
  %2 = alloca ptr, align 8
  store ptr %0, ptr %2, align 8, !tbaa !31
  %3 = load ptr, ptr %2, align 8
  %4 = getelementptr inbounds nuw %class.obj_ref, ptr %3, i32 0, i32 0
  %5 = load ptr, ptr %4, align 8, !tbaa !246
  ret ptr %5
}

; Function Attrs: mustprogress nounwind uwtable
define linkonce_odr hidden noundef ptr @_ZNK7obj_refI4expr11ast_managerEcvPS0_Ev(ptr noundef nonnull align 8 dereferenceable(16) %0) #6 comdat align 2 {
  %2 = alloca ptr, align 8
  store ptr %0, ptr %2, align 8, !tbaa !23
  %3 = load ptr, ptr %2, align 8
  %4 = getelementptr inbounds nuw %class.obj_ref.1, ptr %3, i32 0, i32 0
  %5 = load ptr, ptr %4, align 8, !tbaa !60
  ret ptr %5
}

; Function Attrs: mustprogress nounwind uwtable
define linkonce_odr hidden noundef ptr @_ZNK7obj_refI3app11ast_managerEcvPS0_Ev(ptr noundef nonnull align 8 dereferenceable(16) %0) #6 comdat align 2 {
  %2 = alloca ptr, align 8
  store ptr %0, ptr %2, align 8, !tbaa !142
  %3 = load ptr, ptr %2, align 8
  %4 = getelementptr inbounds nuw %class.obj_ref.49, ptr %3, i32 0, i32 0
  %5 = load ptr, ptr %4, align 8, !tbaa !144
  ret ptr %5
}

; Function Attrs: mustprogress nounwind uwtable
define linkonce_odr hidden void @_ZN7obj_refIN18dependency_managerIN11ast_manager22expr_dependency_configEE10dependencyES1_EC2ERS1_(ptr noundef nonnull align 8 dereferenceable(16) %0, ptr noundef nonnull align 8 dereferenceable(976) %1) unnamed_addr #6 comdat align 2 {
  %3 = alloca ptr, align 8
  %4 = alloca ptr, align 8
  store ptr %0, ptr %3, align 8, !tbaa !31
  store ptr %1, ptr %4, align 8, !tbaa !10
  %5 = load ptr, ptr %3, align 8
  %6 = getelementptr inbounds nuw %class.obj_ref, ptr %5, i32 0, i32 0
  store ptr null, ptr %6, align 8, !tbaa !246
  %7 = getelementptr inbounds nuw %class.obj_ref, ptr %5, i32 0, i32 1
  %8 = load ptr, ptr %4, align 8, !tbaa !10
  store ptr %8, ptr %7, align 8, !tbaa !10
  ret void
}

; Function Attrs: mustprogress nounwind uwtable
define linkonce_odr hidden void @_ZN7obj_refI4expr11ast_managerEC2ERS1_(ptr noundef nonnull align 8 dereferenceable(16) %0, ptr noundef nonnull align 8 dereferenceable(976) %1) unnamed_addr #6 comdat align 2 {
  %3 = alloca ptr, align 8
  %4 = alloca ptr, align 8
  store ptr %0, ptr %3, align 8, !tbaa !23
  store ptr %1, ptr %4, align 8, !tbaa !10
  %5 = load ptr, ptr %3, align 8
  %6 = getelementptr inbounds nuw %class.obj_ref.1, ptr %5, i32 0, i32 0
  store ptr null, ptr %6, align 8, !tbaa !60
  %7 = getelementptr inbounds nuw %class.obj_ref.1, ptr %5, i32 0, i32 1
  %8 = load ptr, ptr %4, align 8, !tbaa !10
  store ptr %8, ptr %7, align 8, !tbaa !10
  ret void
}

; Function Attrs: mustprogress nounwind uwtable
define linkonce_odr hidden void @_ZN7obj_refI3app11ast_managerEC2ERS1_(ptr noundef nonnull align 8 dereferenceable(16) %0, ptr noundef nonnull align 8 dereferenceable(976) %1) unnamed_addr #6 comdat align 2 {
  %3 = alloca ptr, align 8
  %4 = alloca ptr, align 8
  store ptr %0, ptr %3, align 8, !tbaa !142
  store ptr %1, ptr %4, align 8, !tbaa !10
  %5 = load ptr, ptr %3, align 8
  %6 = getelementptr inbounds nuw %class.obj_ref.49, ptr %5, i32 0, i32 0
  store ptr null, ptr %6, align 8, !tbaa !144
  %7 = getelementptr inbounds nuw %class.obj_ref.49, ptr %5, i32 0, i32 1
  %8 = load ptr, ptr %4, align 8, !tbaa !10
  store ptr %8, ptr %7, align 8, !tbaa !10
  ret void
}

; Function Attrs: mustprogress uwtable
define hidden void @_ZN20eliminate_predicates22try_resolve_definitionEP9func_decl(ptr noundef nonnull align 8 dereferenceable(400) %0, ptr noundef %1) #4 align 2 personality ptr @__gxx_personality_v0 {
  %3 = alloca ptr, align 8
  %4 = alloca ptr, align 8
  %5 = alloca %class.obj_ref.49, align 8
  %6 = alloca %class.obj_ref.1, align 8
  %7 = alloca ptr, align 8
  %8 = alloca i32, align 4
  %9 = alloca %class.obj_ref, align 8
  store ptr %0, ptr %3, align 8, !tbaa !63
  store ptr %1, ptr %4, align 8, !tbaa !98
  %10 = load ptr, ptr %3, align 8
  call void @llvm.lifetime.start.p0(i64 16, ptr %5) #3
  %11 = getelementptr inbounds nuw %class.dependent_expr_simplifier, ptr %10, i32 0, i32 1
  %12 = load ptr, ptr %11, align 8, !tbaa !132
  call void @_ZN7obj_refI3app11ast_managerEC2ERS1_(ptr noundef nonnull align 8 dereferenceable(16) %5, ptr noundef nonnull align 8 dereferenceable(976) %12)
  call void @llvm.lifetime.start.p0(i64 16, ptr %6) #3
  %13 = getelementptr inbounds nuw %class.dependent_expr_simplifier, ptr %10, i32 0, i32 1
  %14 = load ptr, ptr %13, align 8, !tbaa !132
  invoke void @_ZN7obj_refI4expr11ast_managerEC2ERS1_(ptr noundef nonnull align 8 dereferenceable(16) %6, ptr noundef nonnull align 8 dereferenceable(976) %14)
          to label %15 unwind label %30

15:                                               ; preds = %2
  call void @llvm.lifetime.start.p0(i64 16, ptr %9) #3
  %16 = getelementptr inbounds nuw %class.dependent_expr_simplifier, ptr %10, i32 0, i32 1
  %17 = load ptr, ptr %16, align 8, !tbaa !132
  invoke void @_ZN7obj_refIN18dependency_managerIN11ast_manager22expr_dependency_configEE10dependencyES1_EC2ERS1_(ptr noundef nonnull align 8 dereferenceable(16) %9, ptr noundef nonnull align 8 dereferenceable(976) %17)
          to label %18 unwind label %34

18:                                               ; preds = %15
  %19 = load ptr, ptr %4, align 8, !tbaa !98
  %20 = invoke noundef zeroext i1 @_ZN20eliminate_predicates26try_find_binary_definitionEP9func_declR7obj_refI3app11ast_managerERS2_I4exprS4_ERS2_IN18dependency_managerINS4_22expr_dependency_configEE10dependencyES4_E(ptr noundef nonnull align 8 dereferenceable(400) %10, ptr noundef %19, ptr noundef nonnull align 8 dereferenceable(16) %5, ptr noundef nonnull align 8 dereferenceable(16) %6, ptr noundef nonnull align 8 dereferenceable(16) %9)
          to label %21 unwind label %38

21:                                               ; preds = %18
  br i1 %20, label %22, label %42

22:                                               ; preds = %21
  %23 = invoke noundef ptr @_ZNK7obj_refI3app11ast_managerEcvPS0_Ev(ptr noundef nonnull align 8 dereferenceable(16) %5)
          to label %24 unwind label %38

24:                                               ; preds = %22
  %25 = invoke noundef ptr @_ZNK7obj_refI4expr11ast_managerEcvPS0_Ev(ptr noundef nonnull align 8 dereferenceable(16) %6)
          to label %26 unwind label %38

26:                                               ; preds = %24
  %27 = invoke noundef ptr @_ZNK7obj_refIN18dependency_managerIN11ast_manager22expr_dependency_configEE10dependencyES1_EcvPS4_Ev(ptr noundef nonnull align 8 dereferenceable(16) %9)
          to label %28 unwind label %38

28:                                               ; preds = %26
  invoke void @_ZN20eliminate_predicates12insert_macroEP3appP4exprPN18dependency_managerIN11ast_manager22expr_dependency_configEE10dependencyE(ptr noundef nonnull align 8 dereferenceable(400) %10, ptr noundef %23, ptr noundef %25, ptr noundef %27)
          to label %29 unwind label %38

29:                                               ; preds = %28
  br label %42

30:                                               ; preds = %2
  %31 = landingpad { ptr, i32 }
          cleanup
  %32 = extractvalue { ptr, i32 } %31, 0
  store ptr %32, ptr %7, align 8
  %33 = extractvalue { ptr, i32 } %31, 1
  store i32 %33, ptr %8, align 4
  br label %44

34:                                               ; preds = %15
  %35 = landingpad { ptr, i32 }
          cleanup
  %36 = extractvalue { ptr, i32 } %35, 0
  store ptr %36, ptr %7, align 8
  %37 = extractvalue { ptr, i32 } %35, 1
  store i32 %37, ptr %8, align 4
  br label %43

38:                                               ; preds = %28, %26, %24, %22, %18
  %39 = landingpad { ptr, i32 }
          cleanup
  %40 = extractvalue { ptr, i32 } %39, 0
  store ptr %40, ptr %7, align 8
  %41 = extractvalue { ptr, i32 } %39, 1
  store i32 %41, ptr %8, align 4
  call void @_ZN7obj_refIN18dependency_managerIN11ast_manager22expr_dependency_configEE10dependencyES1_ED2Ev(ptr noundef nonnull align 8 dereferenceable(16) %9) #3
  br label %43

42:                                               ; preds = %29, %21
  call void @_ZN7obj_refIN18dependency_managerIN11ast_manager22expr_dependency_configEE10dependencyES1_ED2Ev(ptr noundef nonnull align 8 dereferenceable(16) %9) #3
  call void @llvm.lifetime.end.p0(i64 16, ptr %9) #3
  call void @_ZN7obj_refI4expr11ast_managerED2Ev(ptr noundef nonnull align 8 dereferenceable(16) %6) #3
  call void @llvm.lifetime.end.p0(i64 16, ptr %6) #3
  call void @_ZN7obj_refI3app11ast_managerED2Ev(ptr noundef nonnull align 8 dereferenceable(16) %5) #3
  call void @llvm.lifetime.end.p0(i64 16, ptr %5) #3
  ret void

43:                                               ; preds = %38, %34
  call void @llvm.lifetime.end.p0(i64 16, ptr %9) #3
  call void @_ZN7obj_refI4expr11ast_managerED2Ev(ptr noundef nonnull align 8 dereferenceable(16) %6) #3
  br label %44

44:                                               ; preds = %43, %30
  call void @llvm.lifetime.end.p0(i64 16, ptr %6) #3
  call void @_ZN7obj_refI3app11ast_managerED2Ev(ptr noundef nonnull align 8 dereferenceable(16) %5) #3
  call void @llvm.lifetime.end.p0(i64 16, ptr %5) #3
  br label %45

45:                                               ; preds = %44
  %46 = load ptr, ptr %7, align 8
  %47 = load i32, ptr %8, align 4
  %48 = insertvalue { ptr, i32 } poison, ptr %46, 0
  %49 = insertvalue { ptr, i32 } %48, i32 %47, 1
  resume { ptr, i32 } %49
}