; Function Attrs: mustprogress uwtable
define hidden void @_ZN20eliminate_predicates22try_resolve_definitionEP9func_decl(ptr noundef nonnull align 8 dereferenceable(400) %0, ptr noundef %1) local_unnamed_addr #3 align 2 personality ptr @__gxx_personality_v0 {
  %3 = alloca %class.obj_ref.49, align 8
  %4 = alloca %class.obj_ref.1, align 8
  %5 = alloca %class.obj_ref, align 8
  call void @llvm.lifetime.start.p0(i64 16, ptr nonnull %3) #23
  %6 = getelementptr inbounds nuw i8, ptr %0, i64 8
  %7 = load ptr, ptr %6, align 8, !tbaa !100
  store ptr null, ptr %3, align 8, !tbaa !106
  %8 = getelementptr inbounds nuw i8, ptr %3, i64 8
  store ptr %7, ptr %8, align 8, !tbaa !28
  call void @llvm.lifetime.start.p0(i64 16, ptr nonnull %4) #23
  store ptr null, ptr %4, align 8, !tbaa !25
  %9 = getelementptr inbounds nuw i8, ptr %4, i64 8
  store ptr %7, ptr %9, align 8, !tbaa !28
  call void @llvm.lifetime.start.p0(i64 16, ptr nonnull %5) #23
  store ptr null, ptr %5, align 8, !tbaa !130
  %10 = getelementptr inbounds nuw i8, ptr %5, i64 8
  store ptr %7, ptr %10, align 8, !tbaa !28
  %11 = invoke noundef zeroext i1 @_ZN20eliminate_predicates26try_find_binary_definitionEP9func_declR7obj_refI3app11ast_managerERS2_I4exprS4_ERS2_IN18dependency_managerINS4_22expr_dependency_configEE10dependencyES4_E(ptr noundef nonnull align 8 dereferenceable(400) %0, ptr noundef %1, ptr noundef nonnull align 8 dereferenceable(16) %3, ptr noundef nonnull align 8 dereferenceable(16) %4, ptr noundef nonnull align 8 dereferenceable(16) %5)
          to label %12 unwind label %17

12:                                               ; preds = %2
  br i1 %11, label %13, label %19

13:                                               ; preds = %12
  %14 = load ptr, ptr %3, align 8, !tbaa !106
  %15 = load ptr, ptr %4, align 8, !tbaa !25
  %16 = load ptr, ptr %5, align 8, !tbaa !130
  invoke void @_ZN20eliminate_predicates12insert_macroEP3appP4exprPN18dependency_managerIN11ast_manager22expr_dependency_configEE10dependencyE(ptr noundef nonnull align 8 dereferenceable(400) %0, ptr noundef %14, ptr noundef %15, ptr noundef %16)
          to label %19 unwind label %17

17:                                               ; preds = %13, %2
  %18 = landingpad { ptr, i32 }
          cleanup
  call void @_ZN7obj_refIN18dependency_managerIN11ast_manager22expr_dependency_configEE10dependencyES1_ED2Ev(ptr noundef nonnull align 8 dereferenceable(16) %5) #23
  call void @llvm.lifetime.end.p0(i64 16, ptr nonnull %5) #23
  call void @_ZN7obj_refI4expr11ast_managerED2Ev(ptr noundef nonnull align 8 dereferenceable(16) %4) #23
  call void @llvm.lifetime.end.p0(i64 16, ptr nonnull %4) #23
  call void @_ZN7obj_refI3app11ast_managerED2Ev(ptr noundef nonnull align 8 dereferenceable(16) %3) #23
  call void @llvm.lifetime.end.p0(i64 16, ptr nonnull %3) #23
  resume { ptr, i32 } %18

19:                                               ; preds = %13, %12
  %20 = load ptr, ptr %5, align 8, !tbaa !130
  %.not.i.i = icmp eq ptr %20, null
  br i1 %.not.i.i, label %_ZN7obj_refIN18dependency_managerIN11ast_manager22expr_dependency_configEE10dependencyES1_ED2Ev.exit, label %21

21:                                               ; preds = %19
  %22 = load ptr, ptr %10, align 8, !tbaa !3
  %23 = load i32, ptr %20, align 4
  %24 = add i32 %23, 1073741823
  %25 = and i32 %24, 1073741823
  %26 = and i32 %23, -1073741824
  %27 = or disjoint i32 %25, %26
  store i32 %27, ptr %20, align 4
  %28 = and i32 %23, 1073741823
  %29 = icmp eq i32 %28, 1
  br i1 %29, label %30, label %_ZN7obj_refIN18dependency_managerIN11ast_manager22expr_dependency_configEE10dependencyES1_ED2Ev.exit

30:                                               ; preds = %21
  %31 = getelementptr inbounds nuw i8, ptr %22, i64 648
  invoke void @_ZN18dependency_managerIN11ast_manager22expr_dependency_configEE3delEPNS2_10dependencyE(ptr noundef nonnull align 8 dereferenceable(24) %31, ptr noundef nonnull %20)
          to label %_ZN7obj_refIN18dependency_managerIN11ast_manager22expr_dependency_configEE10dependencyES1_ED2Ev.exit unwind label %32

32:                                               ; preds = %30
  %33 = landingpad { ptr, i32 }
          catch ptr null
  %34 = extractvalue { ptr, i32 } %33, 0
  call void @__clang_call_terminate(ptr %34) #24
  unreachable

_ZN7obj_refIN18dependency_managerIN11ast_manager22expr_dependency_configEE10dependencyES1_ED2Ev.exit: ; preds = %19, %21, %30
  call void @llvm.lifetime.end.p0(i64 16, ptr nonnull %5) #23
  %35 = load ptr, ptr %4, align 8, !tbaa !25
  %.not.i.i3 = icmp eq ptr %35, null
  br i1 %.not.i.i3, label %_ZN7obj_refI4expr11ast_managerED2Ev.exit, label %36

36:                                               ; preds = %_ZN7obj_refIN18dependency_managerIN11ast_manager22expr_dependency_configEE10dependencyES1_ED2Ev.exit
  %37 = load ptr, ptr %9, align 8, !tbaa !102
  %38 = getelementptr inbounds nuw i8, ptr %35, i64 8
  %39 = load i32, ptr %38, align 4, !tbaa !101
  %40 = add i32 %39, -1
  store i32 %40, ptr %38, align 4, !tbaa !101
  %41 = icmp eq i32 %40, 0
  br i1 %41, label %42, label %_ZN7obj_refI4expr11ast_managerED2Ev.exit

42:                                               ; preds = %36
  invoke void @_ZN11ast_manager11delete_nodeEP3ast(ptr noundef nonnull align 8 dereferenceable(976) %37, ptr noundef nonnull %35)
          to label %_ZN7obj_refI4expr11ast_managerED2Ev.exit unwind label %43

43:                                               ; preds = %42
  %44 = landingpad { ptr, i32 }
          catch ptr null
  %45 = extractvalue { ptr, i32 } %44, 0
  call void @__clang_call_terminate(ptr %45) #24
  unreachable

_ZN7obj_refI4expr11ast_managerED2Ev.exit:         ; preds = %_ZN7obj_refIN18dependency_managerIN11ast_manager22expr_dependency_configEE10dependencyES1_ED2Ev.exit, %36, %42
  call void @llvm.lifetime.end.p0(i64 16, ptr nonnull %4) #23
  %46 = load ptr, ptr %3, align 8, !tbaa !106
  %.not.i.i4 = icmp eq ptr %46, null
  br i1 %.not.i.i4, label %_ZN7obj_refI3app11ast_managerED2Ev.exit, label %47

47:                                               ; preds = %_ZN7obj_refI4expr11ast_managerED2Ev.exit
  %48 = load ptr, ptr %8, align 8, !tbaa !124
  %49 = getelementptr inbounds nuw i8, ptr %46, i64 8
  %50 = load i32, ptr %49, align 4, !tbaa !101
  %51 = add i32 %50, -1
  store i32 %51, ptr %49, align 4, !tbaa !101
  %52 = icmp eq i32 %51, 0
  br i1 %52, label %53, label %_ZN7obj_refI3app11ast_managerED2Ev.exit

53:                                               ; preds = %47
  invoke void @_ZN11ast_manager11delete_nodeEP3ast(ptr noundef nonnull align 8 dereferenceable(976) %48, ptr noundef nonnull %46)
          to label %_ZN7obj_refI3app11ast_managerED2Ev.exit unwind label %54

54:                                               ; preds = %53
  %55 = landingpad { ptr, i32 }
          catch ptr null
  %56 = extractvalue { ptr, i32 } %55, 0
  call void @__clang_call_terminate(ptr %56) #24
  unreachable

_ZN7obj_refI3app11ast_managerED2Ev.exit:          ; preds = %_ZN7obj_refI4expr11ast_managerED2Ev.exit, %47, %53
  call void @llvm.lifetime.end.p0(i64 16, ptr nonnull %3) #23
  ret void
}